; Function Attrs: nounwind uwtable
define internal i32 @_sort_step_by_partition(ptr noundef readonly captures(none) %0, ptr noundef readonly captures(none) %1) #0 {
  %.val = load ptr, ptr %0, align 8
  %3 = load ptr, ptr %1, align 8
  %4 = getelementptr inbounds nuw i8, ptr %.val, i64 104
  %5 = load ptr, ptr %4, align 8
  %.not = icmp eq ptr %5, null
  %spec.select = select i1 %.not, ptr @.str.5, ptr %5
  %6 = getelementptr inbounds nuw i8, ptr %3, i64 104
  %7 = load ptr, ptr %6, align 8
  %.not9 = icmp eq ptr %7, null
  %.0 = select i1 %.not9, ptr @.str.5, ptr %7
  %8 = tail call i32 @xstrcmp(ptr noundef nonnull %spec.select, ptr noundef nonnull %.0) #11
  %.b10 = load i1, ptr @reverse_order, align 1
  %9 = sub nsw i32 0, %8
  %.06 = select i1 %.b10, i32 %9, i32 %8
  ret i32 %.06
}